CCS PCH C Compiler, Version 5.008, 5967               15-may-14 15:09

               Filename:   C:\Users\ELIAS\Documents\PIC18F4550\Debug.lst

               ROM used:   2410 bytes (7%)
                           Largest free fragment is 30358
               RAM used:   5 (0%) at main() level
                           6 (0%) worst case
               Stack used: 1 locations
               Stack size: 31

*
0000:  GOTO   002C
....................  
.................... /* Main.c file generated by New Project wizard 
....................  * 
....................  * Created:   jue may 15 2014 
....................  * Processor: PIC18F4550 
....................  * Compiler:  CCS for PIC 
....................  */ 
....................   
.................... #include <18F4550.h> 
.................... //////// Standard Header file for the PIC18F4550 device //////////////// 
.................... #device PIC18F4550 
....................  
.................... #list 
....................  
.................... #fuses XT,NOWDT,NOPROTECT 
.................... #use delay(clock=4000000) 
0004:  CLRF   FEA
0006:  MOVLW  06
0008:  MOVWF  FE9
000A:  MOVF   FEF,W
000C:  BZ    002A
000E:  MOVLW  01
0010:  MOVWF  01
0012:  CLRF   00
0014:  DECFSZ 00,F
0016:  BRA    0014
0018:  DECFSZ 01,F
001A:  BRA    0012
001C:  MOVLW  4A
001E:  MOVWF  00
0020:  DECFSZ 00,F
0022:  BRA    0020
0024:  BRA    0026
0026:  DECFSZ FEF,F
0028:  BRA    000E
002A:  RETURN 0
.................... #use standard_io(A) 
.................... #use standard_io(B) 
....................                   /*delay_ms(); es para retardar una instrucción*/ 
.................... void main(void) 
002C:  CLRF   FF8
002E:  BCF    FD0.7
0030:  MOVF   FC1,W
0032:  ANDLW  C0
0034:  IORLW  0F
0036:  MOVWF  FC1
0038:  MOVLW  07
003A:  MOVWF  FB4
.................... { 
....................     
....................    output_high(PIN_D2); 
003C:  BCF    F95.2
003E:  BSF    F8C.2
....................    output_high(PIN_D3); 
0040:  BCF    F95.3
0042:  BSF    F8C.3
....................    output_high(PIN_D4); 
0044:  BCF    F95.4
0046:  BSF    F8C.4
....................    output_high(PIN_D5); 
0048:  BCF    F95.5
004A:  BSF    F8C.5
....................    delay_ms(400); 
004C:  MOVLW  02
004E:  MOVWF  05
0050:  MOVLW  C8
0052:  MOVWF  06
0054:  RCALL  0004
0056:  DECFSZ 05,F
0058:  BRA    0050
....................    output_low(PIN_D2); 
005A:  BCF    F95.2
005C:  BCF    F8C.2
....................    output_low(PIN_D3); 
005E:  BCF    F95.3
0060:  BCF    F8C.3
....................    output_low(PIN_D4); 
0062:  BCF    F95.4
0064:  BCF    F8C.4
....................    output_low(PIN_D5); 
0066:  BCF    F95.5
0068:  BCF    F8C.5
....................     
....................    while(TRUE) 
....................    { 
....................     
....................    output_low(PIN_D0);     //LOS MOTORES DE LLENADO Y ACTIVADO SE DESACTIVAN 
006A:  BCF    F95.0
006C:  BCF    F8C.0
....................    output_low(PIN_D1);     //EVITANDO EL ACTIVADO REPENTINO POR PARTE DEL PIC. 
006E:  BCF    F95.1
0070:  BCF    F8C.1
....................  
....................    //INICIO DEL NIVEL 1 
....................    nivel1: 
....................     
....................       if(input(PIN_B0)==TRUE)       //SI SE ACTIVA EL BOTON DEL NIVEL 2, SE EJECUTAN LAS DEMÁS SENTENCIAS: 
0072:  BSF    F93.0
0074:  BTFSS  F81.0
0076:  BRA    02F6
....................    { 
....................       output_low(PIN_D2);                                    //SE ACTIVA LA LUZ DEL NIVEL 2 
0078:  BCF    F95.2
007A:  BCF    F8C.2
....................       output_low(PIN_D3);                                   //SE DESACTIVAN LAS DEMÁS LUCES. 
007C:  BCF    F95.3
007E:  BCF    F8C.3
....................       output_low(PIN_D4); 
0080:  BCF    F95.4
0082:  BCF    F8C.4
....................       output_high(PIN_D5); 
0084:  BCF    F95.5
0086:  BSF    F8C.5
....................       delay_ms(700);                                        //SE RETRASA 700ms Y SE PROCEDE A, APAGAR LA LUZ DEL NIVEL 2 
0088:  MOVLW  04
008A:  MOVWF  05
008C:  MOVLW  AF
008E:  MOVWF  06
0090:  RCALL  0004
0092:  DECFSZ 05,F
0094:  BRA    008C
....................       output_low(PIN_D5);                                   //SE RETRASA 1s MÁS ANTES DE EVALUAR LOS SENSORES. 
0096:  BCF    F95.5
0098:  BCF    F8C.5
....................       delay_ms(500); 
009A:  MOVLW  02
009C:  MOVWF  05
009E:  MOVLW  FA
00A0:  MOVWF  06
00A2:  RCALL  0004
00A4:  DECFSZ 05,F
00A6:  BRA    009E
....................        
....................       if((input(PIN_B0) || input(PIN_B1) || input(PIN_B2) || input(PIN_B3))==TRUE)     //SI NO HAY INSTRUCCIONES DE CAMBIO DE NIVEL SE CONTINUA, 
00A8:  BSF    F93.0
00AA:  BTFSC  F81.0
00AC:  BRA    00C4
00AE:  BSF    F93.1
00B0:  BTFSC  F81.1
00B2:  BRA    00C4
00B4:  BSF    F93.2
00B6:  BTFSC  F81.2
00B8:  BRA    00C4
00BA:  BSF    F93.3
00BC:  BTFSC  F81.3
00BE:  BRA    00C4
00C0:  MOVLW  00
00C2:  BRA    00C6
00C4:  MOVLW  01
00C6:  SUBLW  01
00C8:  BNZ   00CC
....................       { 
....................                                                                                 //DE LO CONTRARIO, SE PROCEDE A REINICIAR CON EL NIVEL 
....................          goto nivel1;                                                           //ESPECIFICADO CON EL BOTON CORRESPONDIENTE. 
00CA:  BRA    0072
....................       } 
....................        
....................       subnivel1:                                            //ETIQUETA PARA ACCEDER CUANDO SE LE NECESITE APARTIR DE ESTA LINEA. 
....................       if(input(PIN_B4)==FALSE)                              //SI NO HAY NADA EN EL SENSOR 2, SE PROCEDE A EJECUTAR LAS SIG. INSTRUCCIONES. 
00CC:  BSF    F93.4
00CE:  BTFSC  F81.4
00D0:  BRA    01B4
....................       { 
....................          if((input(PIN_B0) || input(PIN_B1) || input(PIN_B2) || input(PIN_B3))==FALSE) //SI NO HAY CAMBIO DE NIVEL, SE CUMPLE LA CONDICIÓN. 
00D2:  BSF    F93.0
00D4:  BTFSC  F81.0
00D6:  BRA    00EE
00D8:  BSF    F93.1
00DA:  BTFSC  F81.1
00DC:  BRA    00EE
00DE:  BSF    F93.2
00E0:  BTFSC  F81.2
00E2:  BRA    00EE
00E4:  BSF    F93.3
00E6:  BTFSC  F81.3
00E8:  BRA    00EE
00EA:  MOVLW  00
00EC:  BRA    00F0
00EE:  MOVLW  01
00F0:  XORLW  00
00F2:  BNZ   01B2
....................          { 
....................             while((input(PIN_B4) || input(PIN_B0) || input(PIN_B1) || input(PIN_B2) || input(PIN_B3))==FALSE) //SI NO HAY CAMBIOS DE NIVEL... 
00F4:  BSF    F93.4
00F6:  BTFSC  F81.4
00F8:  BRA    0116
00FA:  BSF    F93.0
00FC:  BTFSC  F81.0
00FE:  BRA    0116
0100:  BSF    F93.1
0102:  BTFSC  F81.1
0104:  BRA    0116
0106:  BSF    F93.2
0108:  BTFSC  F81.2
010A:  BRA    0116
010C:  BSF    F93.3
010E:  BTFSC  F81.3
0110:  BRA    0116
0112:  MOVLW  00
0114:  BRA    0118
0116:  MOVLW  01
0118:  XORLW  00
011A:  BNZ   0166
....................             {                                        //... O SE ENCIENDE EL SENSOR DEL NIVEL 2, BUCLE, HASTA QUE SENSOR DE NIVEL 2 SE ACTIVE. 
....................                output_high(PIN_D0);                         //MIENTRAS NO EXISTA CAMBIO DE NIVEL, SE EMPIEZA A LLENAR EL RECIPIENTE 
011C:  BCF    F95.0
011E:  BSF    F8C.0
....................                output_low(PIN_D1);                          //RECORDAR QUE C7=LLENADO; AQUI SE ENCIENDE EL MOTOR DE LLENADO 
0120:  BCF    F95.1
0122:  BCF    F8C.1
....................                                                            //RECORDAR QUE C6=VACIADO; AQUI SE APAGA EL MOTOR DE VACIADO. 
....................  
....................                if(input(PIN_B4)==TRUE) 
0124:  BSF    F93.4
0126:  BTFSS  F81.4
0128:  BRA    0130
....................                { 
....................                   output_high(PIN_D5); 
012A:  BCF    F95.5
012C:  BSF    F8C.5
....................                } 
012E:  BRA    0134
....................                else 
....................                { 
....................                   output_low(PIN_D5); 
0130:  BCF    F95.5
0132:  BCF    F8C.5
....................                } 
....................     
....................                if(input(PIN_B5)==TRUE) 
0134:  BSF    F93.5
0136:  BTFSS  F81.5
0138:  BRA    0140
....................                { 
....................                   output_high(PIN_D4); 
013A:  BCF    F95.4
013C:  BSF    F8C.4
....................                } 
013E:  BRA    0144
....................                else 
....................                { 
....................                   output_low(PIN_D4); 
0140:  BCF    F95.4
0142:  BCF    F8C.4
....................                } 
....................                 
....................                if(input(PIN_B6)==TRUE) 
0144:  BSF    F93.6
0146:  BTFSS  F81.6
0148:  BRA    0150
....................                { 
....................                   output_high(PIN_D3); 
014A:  BCF    F95.3
014C:  BSF    F8C.3
....................                } 
014E:  BRA    0154
....................                else 
....................                { 
....................                   output_low(PIN_D3); 
0150:  BCF    F95.3
0152:  BCF    F8C.3
....................                } 
....................     
....................                if(input(PIN_B7)==TRUE) 
0154:  BSF    F93.7
0156:  BTFSS  F81.7
0158:  BRA    0160
....................                { 
....................                   output_high(PIN_D2); 
015A:  BCF    F95.2
015C:  BSF    F8C.2
....................                } 
015E:  BRA    0164
....................                else 
....................                { 
....................                   output_low(PIN_D2); 
0160:  BCF    F95.2
0162:  BCF    F8C.2
....................                } 
0164:  BRA    00F4
....................  
....................             } 
....................              
....................             if(input(PIN_B4)==TRUE) 
0166:  BSF    F93.4
0168:  BTFSS  F81.4
016A:  BRA    0172
....................             { 
....................                output_high(PIN_D5); 
016C:  BCF    F95.5
016E:  BSF    F8C.5
....................             } 
0170:  BRA    0176
....................             else 
....................             { 
....................                output_low(PIN_D5); 
0172:  BCF    F95.5
0174:  BCF    F8C.5
....................             } 
....................  
....................             if(input(PIN_B5)==TRUE) 
0176:  BSF    F93.5
0178:  BTFSS  F81.5
017A:  BRA    0182
....................             { 
....................                output_high(PIN_D4); 
017C:  BCF    F95.4
017E:  BSF    F8C.4
....................             } 
0180:  BRA    0186
....................             else 
....................             { 
....................                output_low(PIN_D4); 
0182:  BCF    F95.4
0184:  BCF    F8C.4
....................             } 
....................              
....................             if(input(PIN_B6)==TRUE) 
0186:  BSF    F93.6
0188:  BTFSS  F81.6
018A:  BRA    0192
....................             { 
....................                output_high(PIN_D3); 
018C:  BCF    F95.3
018E:  BSF    F8C.3
....................             } 
0190:  BRA    0196
....................             else 
....................             { 
....................                output_low(PIN_D3); 
0192:  BCF    F95.3
0194:  BCF    F8C.3
....................             } 
....................  
....................             if(input(PIN_B7)==TRUE) 
0196:  BSF    F93.7
0198:  BTFSS  F81.7
019A:  BRA    01A2
....................             { 
....................                output_high(PIN_D2); 
019C:  BCF    F95.2
019E:  BSF    F8C.2
....................             } 
01A0:  BRA    01A6
....................             else 
....................             { 
....................                output_low(PIN_D2); 
01A2:  BCF    F95.2
01A4:  BCF    F8C.2
....................             } 
....................              
....................             output_low(PIN_D0);                             //SE SALIÓ DEL BUCLE ANTERIOR, ENTONCES SE PROCEDE A, APAGAR LOS MOTORES 
01A6:  BCF    F95.0
01A8:  BCF    F8C.0
....................             output_low(PIN_D1);                             //Y SE REGRESA AL NIVEL 1. CON ESTO SE VUELVEN A PEDIR LOS DATOS DE NIVEL. 
01AA:  BCF    F95.1
01AC:  BCF    F8C.1
....................             goto nivel1; 
01AE:  BRA    0072
....................              
....................          } 
01B0:  BRA    01B4
....................          else 
....................          { 
....................             goto nivel1; 
01B2:  BRA    0072
....................          } 
....................       } 
....................        
....................    if((input(PIN_B5) || input(PIN_B6) || input(PIN_B7))==TRUE)            //SI HAY AGUA EN LOS NIVELES 3 Y 4, LA CONDICIÓN SE CUMPLE, SINO SE VA AL ELSE. 
01B4:  BSF    F93.5
01B6:  BTFSC  F81.5
01B8:  BRA    01CA
01BA:  BSF    F93.6
01BC:  BTFSC  F81.6
01BE:  BRA    01CA
01C0:  BSF    F93.7
01C2:  BTFSC  F81.7
01C4:  BRA    01CA
01C6:  MOVLW  00
01C8:  BRA    01CC
01CA:  MOVLW  01
01CC:  SUBLW  01
01CE:  BTFSS  FD8.2
01D0:  BRA    02C8
....................    { 
....................       while((input(PIN_B4) || input(PIN_B5) || input(PIN_B6) || input(PIN_B7))==TRUE)  //SI HAY AGUA EN LOS NIVELES 3, 4 Y 5, SE CUMPLE LA... 
01D2:  BSF    F93.4
01D4:  BTFSC  F81.4
01D6:  BRA    01EE
01D8:  BSF    F93.5
01DA:  BTFSC  F81.5
01DC:  BRA    01EE
01DE:  BSF    F93.6
01E0:  BTFSC  F81.6
01E2:  BRA    01EE
01E4:  BSF    F93.7
01E6:  BTFSC  F81.7
01E8:  BRA    01EE
01EA:  MOVLW  00
01EC:  BRA    01F0
01EE:  MOVLW  01
01F0:  SUBLW  01
01F2:  BNZ   0262
....................       {                                                                                //... CONDICIÓN Y SE PROCEDE A VACIAR EL TANQUE. 
....................          output_low(PIN_D0);                             //RECORDAR QUE C7=LLENADO; AQUI SE APAGA EL MOTOR DE LLENADO 
01F4:  BCF    F95.0
01F6:  BCF    F8C.0
....................          output_high(PIN_D1);                            //RECORDAR QUE C6=VACIADO; AQUI SE ENCIENDE EL MOTOR DE VACIADO. 
01F8:  BCF    F95.1
01FA:  BSF    F8C.1
....................           
....................          if((input(PIN_B0) || input(PIN_B1) || input(PIN_B2) || input(PIN_B3))==TRUE)  //SI SE SOLICITA CAMBIO DE NIVEL, SE CUMPLE LA CONDICIÓN 
01FC:  BSF    F93.0
01FE:  BTFSC  F81.0
0200:  BRA    0218
0202:  BSF    F93.1
0204:  BTFSC  F81.1
0206:  BRA    0218
0208:  BSF    F93.2
020A:  BTFSC  F81.2
020C:  BRA    0218
020E:  BSF    F93.3
0210:  BTFSC  F81.3
0212:  BRA    0218
0214:  MOVLW  00
0216:  BRA    021A
0218:  MOVLW  01
021A:  SUBLW  01
021C:  BNZ   0220
....................          { 
....................                                                                        //PARA LA CUAL SE EJECUTA goto nivel1, Y SE VUELVE A EVALUAR LOS NIVELES. 
....................             goto nivel1;                                               //REGRESA A LA ETIQUETA DE nivel1, (SE SOBREENTIENDE). 
021E:  BRA    0072
....................          } 
....................           
....................          if(input(PIN_B4)==TRUE) 
0220:  BSF    F93.4
0222:  BTFSS  F81.4
0224:  BRA    022C
....................          { 
....................             output_high(PIN_D5); 
0226:  BCF    F95.5
0228:  BSF    F8C.5
....................          } 
022A:  BRA    0230
....................          else 
....................          { 
....................             output_low(PIN_D5); 
022C:  BCF    F95.5
022E:  BCF    F8C.5
....................          } 
....................  
....................          if(input(PIN_B5)==TRUE) 
0230:  BSF    F93.5
0232:  BTFSS  F81.5
0234:  BRA    023C
....................          { 
....................             output_high(PIN_D4); 
0236:  BCF    F95.4
0238:  BSF    F8C.4
....................          } 
023A:  BRA    0240
....................          else 
....................          { 
....................             output_low(PIN_D4); 
023C:  BCF    F95.4
023E:  BCF    F8C.4
....................          } 
....................  
....................          if(input(PIN_B6)==TRUE) 
0240:  BSF    F93.6
0242:  BTFSS  F81.6
0244:  BRA    024C
....................          { 
....................          output_high(PIN_D3); 
0246:  BCF    F95.3
0248:  BSF    F8C.3
....................          } 
024A:  BRA    0250
....................          else 
....................          { 
....................             output_low(PIN_D3); 
024C:  BCF    F95.3
024E:  BCF    F8C.3
....................          } 
....................  
....................          if(input(PIN_B7)==TRUE) 
0250:  BSF    F93.7
0252:  BTFSS  F81.7
0254:  BRA    025C
....................          { 
....................             output_high(PIN_D2); 
0256:  BCF    F95.2
0258:  BSF    F8C.2
....................          } 
025A:  BRA    0260
....................          else 
....................          { 
....................             output_low(PIN_D2); 
025C:  BCF    F95.2
025E:  BCF    F8C.2
....................          } 
0260:  BRA    01D2
....................       } 
....................  
....................       if((input(PIN_B0) || input(PIN_B1) || input(PIN_B2) || input(PIN_B3))==TRUE)  //SI SE SOLICITA CAMBIO DE NIVEL, SE CUMPLE LA CONDICIÓN 
0262:  BSF    F93.0
0264:  BTFSC  F81.0
0266:  BRA    027E
0268:  BSF    F93.1
026A:  BTFSC  F81.1
026C:  BRA    027E
026E:  BSF    F93.2
0270:  BTFSC  F81.2
0272:  BRA    027E
0274:  BSF    F93.3
0276:  BTFSC  F81.3
0278:  BRA    027E
027A:  MOVLW  00
027C:  BRA    0280
027E:  MOVLW  01
0280:  SUBLW  01
0282:  BNZ   0286
....................       { 
....................                                                                                   //PARA LA CUAL SE EJECUTA goto nivel1, Y SE VUELVE A EVALUAR LOS NIVELES. 
....................          goto nivel1;                                                               //REGRESA A LA ETIQUETA DE nivel1, (SE SOBREENTIENDE). 
0284:  BRA    0072
....................       } 
....................  
....................       if(input(PIN_B4)==TRUE) 
0286:  BSF    F93.4
0288:  BTFSS  F81.4
028A:  BRA    0292
....................       { 
....................          output_high(PIN_D5); 
028C:  BCF    F95.5
028E:  BSF    F8C.5
....................       } 
0290:  BRA    0296
....................       else 
....................       { 
....................          output_low(PIN_D5); 
0292:  BCF    F95.5
0294:  BCF    F8C.5
....................       } 
....................  
....................       if(input(PIN_B5)==TRUE) 
0296:  BSF    F93.5
0298:  BTFSS  F81.5
029A:  BRA    02A2
....................       { 
....................          output_high(PIN_D4); 
029C:  BCF    F95.4
029E:  BSF    F8C.4
....................       } 
02A0:  BRA    02A6
....................       else 
....................       { 
....................          output_low(PIN_D4); 
02A2:  BCF    F95.4
02A4:  BCF    F8C.4
....................       } 
....................  
....................       if(input(PIN_B6)==TRUE) 
02A6:  BSF    F93.6
02A8:  BTFSS  F81.6
02AA:  BRA    02B2
....................       { 
....................          output_high(PIN_D3); 
02AC:  BCF    F95.3
02AE:  BSF    F8C.3
....................       } 
02B0:  BRA    02B6
....................       else 
....................       { 
....................          output_low(PIN_D3); 
02B2:  BCF    F95.3
02B4:  BCF    F8C.3
....................       } 
....................  
....................       if(input(PIN_B7)==TRUE) 
02B6:  BSF    F93.7
02B8:  BTFSS  F81.7
02BA:  BRA    02C2
....................       { 
....................          output_high(PIN_D2); 
02BC:  BCF    F95.2
02BE:  BSF    F8C.2
....................       } 
02C0:  BRA    02C6
....................       else 
....................       { 
....................          output_low(PIN_D2); 
02C2:  BCF    F95.2
02C4:  BCF    F8C.2
....................       } 
....................  
....................       goto subnivel1; 
02C6:  BRA    00CC
....................    } 
....................  
....................    if(input(PIN_B5)==FALSE)                                                       //SI SE CUMPLE LA CONDICIÓN DE QUE EL NIVEL 2 (EL SENSOR DEL NIVEL 2) SEA FALSO, SE 
02C8:  BSF    F93.5
02CA:  BTFSC  F81.5
02CC:  BRA    02F6
....................    {                                                                              //EJECUTA LAS SIGUIENTES INSTRUCCIONES CON EVALUACIONES: 
....................       if((input(PIN_B0) || input(PIN_B1) || input(PIN_B2) || input(PIN_B3))==TRUE)  //SI HAY CAMBIO DE NIVELES, SE CUMPLE LA CONDICIÓN 
02CE:  BSF    F93.0
02D0:  BTFSC  F81.0
02D2:  BRA    02EA
02D4:  BSF    F93.1
02D6:  BTFSC  F81.1
02D8:  BRA    02EA
02DA:  BSF    F93.2
02DC:  BTFSC  F81.2
02DE:  BRA    02EA
02E0:  BSF    F93.3
02E2:  BTFSC  F81.3
02E4:  BRA    02EA
02E6:  MOVLW  00
02E8:  BRA    02EC
02EA:  MOVLW  01
02EC:  SUBLW  01
02EE:  BNZ   02F4
....................       { 
....................                                                       //Y SE PROCEDE A EJECUTAR LA SIGUIENTE INSTRUCCIÓN 
....................          goto nivel1;                                 //IR AL nivel1 CON LA INSTRUCCIÓN goto nivel1. 
02F0:  BRA    0072
....................       } 
02F2:  BRA    02F6
....................       else                                            //SI NO SE CUMPLIÓ, SE PROCEDE A REALIZAR LO QUE DICE EL else 
....................       { 
....................          goto subnivel1;                              //IR AL subnivel2, CON EL FIN DE EVALUAR NUEVAMENTE EL SENSOR DOS 
02F4:  BRA    00CC
....................       }                                               //DEBIDO A QUE EL SE REQUIERE LLEGAR AL NIVEL 2 (SENSOR DEL NIVEL 2 [PIN_B5]). 
....................    } 
....................    } 
....................    //FIN DEL NIVEL 1 
....................  
....................  
....................    //INICIO DEL NIVEL 2 
....................    nivel2: 
....................    if(input(PIN_B1)==TRUE)       //SI SE ACTIVA EL BOTON DEL NIVEL 2, SE EJECUTAN LAS DEMÁS SENTENCIAS: 
02F6:  BSF    F93.1
02F8:  BTFSS  F81.1
02FA:  BRA    0548
....................    { 
....................       output_low(PIN_D2);                                    //SE ACTIVA LA LUZ DEL NIVEL 2 
02FC:  BCF    F95.2
02FE:  BCF    F8C.2
....................       output_low(PIN_D3);                                   //SE DESACTIVAN LAS DEMÁS LUCES. 
0300:  BCF    F95.3
0302:  BCF    F8C.3
....................       output_high(PIN_D4); 
0304:  BCF    F95.4
0306:  BSF    F8C.4
....................       output_low(PIN_D5); 
0308:  BCF    F95.5
030A:  BCF    F8C.5
....................       delay_ms(700);                                        //SE RETRASA 700ms Y SE PROCEDE A, APAGAR LA LUZ DEL NIVEL 2 
030C:  MOVLW  04
030E:  MOVWF  05
0310:  MOVLW  AF
0312:  MOVWF  06
0314:  RCALL  0004
0316:  DECFSZ 05,F
0318:  BRA    0310
....................       output_low(PIN_D4);                                   //SE RETRASA 1s MÁS ANTES DE EVALUAR LOS SENSORES. 
031A:  BCF    F95.4
031C:  BCF    F8C.4
....................       delay_ms(500); 
031E:  MOVLW  02
0320:  MOVWF  05
0322:  MOVLW  FA
0324:  MOVWF  06
0326:  RCALL  0004
0328:  DECFSZ 05,F
032A:  BRA    0322
....................        
....................       if((input(PIN_B0) || input(PIN_B1) || input(PIN_B2) || input(PIN_B3))==TRUE)     //SI NO HAY INSTRUCCIONES DE CAMBIO DE NIVEL SE CONTINUA, 
032C:  BSF    F93.0
032E:  BTFSC  F81.0
0330:  BRA    0348
0332:  BSF    F93.1
0334:  BTFSC  F81.1
0336:  BRA    0348
0338:  BSF    F93.2
033A:  BTFSC  F81.2
033C:  BRA    0348
033E:  BSF    F93.3
0340:  BTFSC  F81.3
0342:  BRA    0348
0344:  MOVLW  00
0346:  BRA    034A
0348:  MOVLW  01
034A:  SUBLW  01
034C:  BNZ   0350
....................       { 
....................                                                                                 //DE LO CONTRARIO, SE PROCEDE A REINICIAR CON EL NIVEL 
....................          goto nivel1;                                                           //ESPECIFICADO CON EL BOTON CORRESPONDIENTE. 
034E:  BRA    0072
....................       } 
....................        
....................       subnivel2:                                            //ETIQUETA PARA ACCEDER CUANDO SE LE NECESITE APARTIR DE ESTA LINEA. 
....................       if(input(PIN_B5)==FALSE)                              //SI NO HAY NADA EN EL SENSOR 2, SE PROCEDE A EJECUTAR LAS SIG. INSTRUCCIONES. 
0350:  BSF    F93.5
0352:  BTFSC  F81.5
0354:  BRA    0438
....................       { 
....................          if((input(PIN_B0) || input(PIN_B1) || input(PIN_B2) || input(PIN_B3))==FALSE) //SI NO HAY CAMBIO DE NIVEL, SE CUMPLE LA CONDICIÓN. 
0356:  BSF    F93.0
0358:  BTFSC  F81.0
035A:  BRA    0372
035C:  BSF    F93.1
035E:  BTFSC  F81.1
0360:  BRA    0372
0362:  BSF    F93.2
0364:  BTFSC  F81.2
0366:  BRA    0372
0368:  BSF    F93.3
036A:  BTFSC  F81.3
036C:  BRA    0372
036E:  MOVLW  00
0370:  BRA    0374
0372:  MOVLW  01
0374:  XORLW  00
0376:  BNZ   0436
....................          { 
....................             while((input(PIN_B5) || input(PIN_B0) || input(PIN_B1) || input(PIN_B2) || input(PIN_B3))==FALSE) //SI NO HAY CAMBIOS DE NIVEL... 
0378:  BSF    F93.5
037A:  BTFSC  F81.5
037C:  BRA    039A
037E:  BSF    F93.0
0380:  BTFSC  F81.0
0382:  BRA    039A
0384:  BSF    F93.1
0386:  BTFSC  F81.1
0388:  BRA    039A
038A:  BSF    F93.2
038C:  BTFSC  F81.2
038E:  BRA    039A
0390:  BSF    F93.3
0392:  BTFSC  F81.3
0394:  BRA    039A
0396:  MOVLW  00
0398:  BRA    039C
039A:  MOVLW  01
039C:  XORLW  00
039E:  BNZ   03EA
....................             { 
....................                                                             //... O SE ENCIENDE EL SENSOR DEL NIVEL 2, BUCLE, HASTA QUE SENSOR DE NIVEL 2 SE ACTIVE. 
....................                output_high(PIN_D0);                         //MIENTRAS NO EXISTA CAMBIO DE NIVEL, SE EMPIEZA A LLENAR EL RECIPIENTE 
03A0:  BCF    F95.0
03A2:  BSF    F8C.0
....................                output_low(PIN_D1);                          //RECORDAR QUE C7=LLENADO; AQUI SE ENCIENDE EL MOTOR DE LLENADO 
03A4:  BCF    F95.1
03A6:  BCF    F8C.1
....................                                                             //RECORDAR QUE C6=VACIADO; AQUI SE APAGA EL MOTOR DE VACIADO. 
....................                if(input(PIN_B4)==TRUE) 
03A8:  BSF    F93.4
03AA:  BTFSS  F81.4
03AC:  BRA    03B4
....................                { 
....................                   output_high(PIN_D5); 
03AE:  BCF    F95.5
03B0:  BSF    F8C.5
....................                } 
03B2:  BRA    03B8
....................                else 
....................                { 
....................                   output_low(PIN_D5); 
03B4:  BCF    F95.5
03B6:  BCF    F8C.5
....................                } 
....................     
....................                if(input(PIN_B5)==TRUE) 
03B8:  BSF    F93.5
03BA:  BTFSS  F81.5
03BC:  BRA    03C4
....................                { 
....................                   output_high(PIN_D4); 
03BE:  BCF    F95.4
03C0:  BSF    F8C.4
....................                } 
03C2:  BRA    03C8
....................                else 
....................                { 
....................                   output_low(PIN_D4); 
03C4:  BCF    F95.4
03C6:  BCF    F8C.4
....................                } 
....................                 
....................                if(input(PIN_B6)==TRUE) 
03C8:  BSF    F93.6
03CA:  BTFSS  F81.6
03CC:  BRA    03D4
....................                { 
....................                   output_high(PIN_D3); 
03CE:  BCF    F95.3
03D0:  BSF    F8C.3
....................                } 
03D2:  BRA    03D8
....................                else 
....................                { 
....................                   output_low(PIN_D3); 
03D4:  BCF    F95.3
03D6:  BCF    F8C.3
....................                } 
....................     
....................                if(input(PIN_B7)==TRUE) 
03D8:  BSF    F93.7
03DA:  BTFSS  F81.7
03DC:  BRA    03E4
....................                { 
....................                   output_high(PIN_D2); 
03DE:  BCF    F95.2
03E0:  BSF    F8C.2
....................                } 
03E2:  BRA    03E8
....................                else 
....................                { 
....................                   output_low(PIN_D2); 
03E4:  BCF    F95.2
03E6:  BCF    F8C.2
....................                } 
03E8:  BRA    0378
....................  
....................             } 
....................              
....................             if(input(PIN_B4)==TRUE) 
03EA:  BSF    F93.4
03EC:  BTFSS  F81.4
03EE:  BRA    03F6
....................             { 
....................                output_high(PIN_D5); 
03F0:  BCF    F95.5
03F2:  BSF    F8C.5
....................             } 
03F4:  BRA    03FA
....................             else 
....................             { 
....................                output_low(PIN_D5); 
03F6:  BCF    F95.5
03F8:  BCF    F8C.5
....................             } 
....................  
....................             if(input(PIN_B5)==TRUE) 
03FA:  BSF    F93.5
03FC:  BTFSS  F81.5
03FE:  BRA    0406
....................             { 
....................                output_high(PIN_D4); 
0400:  BCF    F95.4
0402:  BSF    F8C.4
....................             } 
0404:  BRA    040A
....................             else 
....................             { 
....................                output_low(PIN_D4); 
0406:  BCF    F95.4
0408:  BCF    F8C.4
....................             } 
....................              
....................             if(input(PIN_B6)==TRUE) 
040A:  BSF    F93.6
040C:  BTFSS  F81.6
040E:  BRA    0416
....................             { 
....................                output_high(PIN_D3); 
0410:  BCF    F95.3
0412:  BSF    F8C.3
....................             } 
0414:  BRA    041A
....................             else 
....................             { 
....................                output_low(PIN_D3); 
0416:  BCF    F95.3
0418:  BCF    F8C.3
....................             } 
....................  
....................             if(input(PIN_B7)==TRUE) 
041A:  BSF    F93.7
041C:  BTFSS  F81.7
041E:  BRA    0426
....................             { 
....................                output_high(PIN_D2); 
0420:  BCF    F95.2
0422:  BSF    F8C.2
....................             } 
0424:  BRA    042A
....................             else 
....................             { 
....................                output_low(PIN_D2); 
0426:  BCF    F95.2
0428:  BCF    F8C.2
....................             } 
....................              
....................             output_low(PIN_D0);                             //SE SALIÓ DEL BUCLE ANTERIOR, ENTONCES SE PROCEDE A, APAGAR LOS MOTORES 
042A:  BCF    F95.0
042C:  BCF    F8C.0
....................             output_low(PIN_D1);                             //Y SE REGRESA AL NIVEL 1. CON ESTO SE VUELVEN A PEDIR LOS DATOS DE NIVEL. 
042E:  BCF    F95.1
0430:  BCF    F8C.1
....................             goto nivel1; 
0432:  BRA    0072
....................              
....................          } 
0434:  BRA    0438
....................          else 
....................          { 
....................             goto nivel1; 
0436:  BRA    0072
....................          } 
....................       } 
....................        
....................    if((input(PIN_B6) || input(PIN_B7))==TRUE)            //SI HAY AGUA EN LOS NIVELES 3 Y 4, LA CONDICIÓN SE CUMPLE, SINO SE VA AL ELSE. 
0438:  BSF    F93.6
043A:  BTFSC  F81.6
043C:  BRA    0448
043E:  BSF    F93.7
0440:  BTFSC  F81.7
0442:  BRA    0448
0444:  MOVLW  00
0446:  BRA    044A
0448:  MOVLW  01
044A:  SUBLW  01
044C:  BTFSS  FD8.2
044E:  BRA    051A
....................    { 
....................       while((input(PIN_B5) || input(PIN_B6) || input(PIN_B7))==TRUE)  //SI HAY AGUA EN LOS NIVELES 3, 4 Y 5, SE CUMPLE LA... 
0450:  BSF    F93.5
0452:  BTFSC  F81.5
0454:  BRA    0466
0456:  BSF    F93.6
0458:  BTFSC  F81.6
045A:  BRA    0466
045C:  BSF    F93.7
045E:  BTFSC  F81.7
0460:  BRA    0466
0462:  MOVLW  00
0464:  BRA    0468
0466:  MOVLW  01
0468:  SUBLW  01
046A:  BNZ   04DA
....................       {                                                                                //... CONDICIÓN Y SE PROCEDE A VACIAR EL TANQUE. 
....................          output_low(PIN_D0);                             //RECORDAR QUE C7=LLENADO; AQUI SE APAGA EL MOTOR DE LLENADO 
046C:  BCF    F95.0
046E:  BCF    F8C.0
....................          output_high(PIN_D1);                            //RECORDAR QUE C6=VACIADO; AQUI SE ENCIENDE EL MOTOR DE VACIADO. 
0470:  BCF    F95.1
0472:  BSF    F8C.1
....................    
....................          if((input(PIN_B0) || input(PIN_B1) || input(PIN_B2) || input(PIN_B3))==TRUE)  //SI SE SOLICITA CAMBIO DE NIVEL, SE CUMPLE LA CONDICIÓN 
0474:  BSF    F93.0
0476:  BTFSC  F81.0
0478:  BRA    0490
047A:  BSF    F93.1
047C:  BTFSC  F81.1
047E:  BRA    0490
0480:  BSF    F93.2
0482:  BTFSC  F81.2
0484:  BRA    0490
0486:  BSF    F93.3
0488:  BTFSC  F81.3
048A:  BRA    0490
048C:  MOVLW  00
048E:  BRA    0492
0490:  MOVLW  01
0492:  SUBLW  01
0494:  BNZ   0498
....................          { 
....................                                                                  //PARA LA CUAL SE EJECUTA goto nivel1, Y SE VUELVE A EVALUAR LOS NIVELES. 
....................             goto nivel1;                                                               //REGRESA A LA ETIQUETA DE nivel1, (SE SOBREENTIENDE). 
0496:  BRA    0072
....................          } 
....................  
....................          if(input(PIN_B4)==TRUE) 
0498:  BSF    F93.4
049A:  BTFSS  F81.4
049C:  BRA    04A4
....................          { 
....................             output_high(PIN_D5); 
049E:  BCF    F95.5
04A0:  BSF    F8C.5
....................          } 
04A2:  BRA    04A8
....................          else 
....................          { 
....................             output_low(PIN_D5); 
04A4:  BCF    F95.5
04A6:  BCF    F8C.5
....................          } 
....................     
....................          if(input(PIN_B5)==TRUE) 
04A8:  BSF    F93.5
04AA:  BTFSS  F81.5
04AC:  BRA    04B4
....................          { 
....................             output_high(PIN_D4); 
04AE:  BCF    F95.4
04B0:  BSF    F8C.4
....................          } 
04B2:  BRA    04B8
....................          else 
....................          { 
....................             output_low(PIN_D4); 
04B4:  BCF    F95.4
04B6:  BCF    F8C.4
....................          } 
....................               
....................          if(input(PIN_B6)==TRUE) 
04B8:  BSF    F93.6
04BA:  BTFSS  F81.6
04BC:  BRA    04C4
....................          { 
....................             output_high(PIN_D3); 
04BE:  BCF    F95.3
04C0:  BSF    F8C.3
....................          } 
04C2:  BRA    04C8
....................          else 
....................          { 
....................             output_low(PIN_D3); 
04C4:  BCF    F95.3
04C6:  BCF    F8C.3
....................          } 
....................     
....................          if(input(PIN_B7)==TRUE) 
04C8:  BSF    F93.7
04CA:  BTFSS  F81.7
04CC:  BRA    04D4
....................          { 
....................             output_high(PIN_D2); 
04CE:  BCF    F95.2
04D0:  BSF    F8C.2
....................          } 
04D2:  BRA    04D8
....................          else 
....................          { 
....................             output_low(PIN_D2); 
04D4:  BCF    F95.2
04D6:  BCF    F8C.2
....................          } 
04D8:  BRA    0450
....................  
....................       } 
....................  
....................       if(input(PIN_B4)==TRUE) 
04DA:  BSF    F93.4
04DC:  BTFSS  F81.4
04DE:  BRA    04E6
....................       { 
....................          output_high(PIN_D5); 
04E0:  BCF    F95.5
04E2:  BSF    F8C.5
....................       } 
04E4:  BRA    04EA
....................       else 
....................       { 
....................          output_low(PIN_D5); 
04E6:  BCF    F95.5
04E8:  BCF    F8C.5
....................       } 
....................  
....................       if(input(PIN_B5)==TRUE) 
04EA:  BSF    F93.5
04EC:  BTFSS  F81.5
04EE:  BRA    04F6
....................       { 
....................          output_high(PIN_D4); 
04F0:  BCF    F95.4
04F2:  BSF    F8C.4
....................       } 
04F4:  BRA    04FA
....................       else 
....................       { 
....................          output_low(PIN_D4); 
04F6:  BCF    F95.4
04F8:  BCF    F8C.4
....................       } 
....................  
....................       if(input(PIN_B6)==TRUE) 
04FA:  BSF    F93.6
04FC:  BTFSS  F81.6
04FE:  BRA    0506
....................       { 
....................          output_high(PIN_D3); 
0500:  BCF    F95.3
0502:  BSF    F8C.3
....................       } 
0504:  BRA    050A
....................       else 
....................       { 
....................          output_low(PIN_D3); 
0506:  BCF    F95.3
0508:  BCF    F8C.3
....................       } 
....................  
....................       if(input(PIN_B7)==TRUE) 
050A:  BSF    F93.7
050C:  BTFSS  F81.7
050E:  BRA    0516
....................       { 
....................          output_high(PIN_D2); 
0510:  BCF    F95.2
0512:  BSF    F8C.2
....................       } 
0514:  BRA    051A
....................       else 
....................       { 
....................          output_low(PIN_D2); 
0516:  BCF    F95.2
0518:  BCF    F8C.2
....................       } 
....................    } 
....................  
....................    if(input(PIN_B5)==FALSE)                                                       //SI SE CUMPLE LA CONDICIÓN DE QUE EL NIVEL 2 (EL SENSOR DEL NIVEL 2) SEA FALSO, SE 
051A:  BSF    F93.5
051C:  BTFSC  F81.5
051E:  BRA    0548
....................    {                                                                              //EJECUTA LAS SIGUIENTES INSTRUCCIONES CON EVALUACIONES: 
....................       if((input(PIN_B0) || input(PIN_B1) || input(PIN_B2) || input(PIN_B3))==TRUE)  //SI HAY CAMBIO DE NIVELES, SE CUMPLE LA CONDICIÓN 
0520:  BSF    F93.0
0522:  BTFSC  F81.0
0524:  BRA    053C
0526:  BSF    F93.1
0528:  BTFSC  F81.1
052A:  BRA    053C
052C:  BSF    F93.2
052E:  BTFSC  F81.2
0530:  BRA    053C
0532:  BSF    F93.3
0534:  BTFSC  F81.3
0536:  BRA    053C
0538:  MOVLW  00
053A:  BRA    053E
053C:  MOVLW  01
053E:  SUBLW  01
0540:  BNZ   0546
....................       {                                                                           //Y SE PROCEDE A EJECUTAR LA SIGUIENTE INSTRUCCIÓN 
....................          goto nivel1;                                 //IR AL nivel1 CON LA INSTRUCCIÓN goto nivel1. 
0542:  BRA    0072
....................       } 
0544:  BRA    0548
....................       else                                            //SI NO SE CUMPLIÓ, SE PROCEDE A REALIZAR LO QUE DICE EL else 
....................       { 
....................          goto subnivel2;                              //IR AL subnivel2, CON EL FIN DE EVALUAR NUEVAMENTE EL SENSOR DOS 
0546:  BRA    0350
....................       }                                               //DEBIDO A QUE EL SE REQUIERE LLEGAR AL NIVEL 2 (SENSOR DEL NIVEL 2 [PIN_B5]). 
....................    } 
....................    } 
....................    //FIN DEL NIVEL 2 
....................  
....................  
....................  
....................    //INICIO DEL NIVEL 3 
....................    nivel3: 
....................    if(input(PIN_B2)==TRUE) 
0548:  BSF    F93.2
054A:  BTFSS  F81.2
054C:  BRA    0766
....................    { 
....................       output_low(PIN_D2);                                    //SE ACTIVA LA LUZ DEL NIVEL 2 
054E:  BCF    F95.2
0550:  BCF    F8C.2
....................       output_high(PIN_D3);                                   //SE DESACTIVAN LAS DEMÁS LUCES. 
0552:  BCF    F95.3
0554:  BSF    F8C.3
....................       output_low(PIN_D4); 
0556:  BCF    F95.4
0558:  BCF    F8C.4
....................       output_low(PIN_D5); 
055A:  BCF    F95.5
055C:  BCF    F8C.5
....................       delay_ms(700);                                        //SE RETRASA 700ms Y SE PROCEDE A, APAGAR LA LUZ DEL NIVEL 2 
055E:  MOVLW  04
0560:  MOVWF  05
0562:  MOVLW  AF
0564:  MOVWF  06
0566:  RCALL  0004
0568:  DECFSZ 05,F
056A:  BRA    0562
....................       output_low(PIN_D3);                                   //SE RETRASA 1s MÁS ANTES DE EVALUAR LOS SENSORES. 
056C:  BCF    F95.3
056E:  BCF    F8C.3
....................       delay_ms(500); 
0570:  MOVLW  02
0572:  MOVWF  05
0574:  MOVLW  FA
0576:  MOVWF  06
0578:  RCALL  0004
057A:  DECFSZ 05,F
057C:  BRA    0574
....................        
....................       subnivel3: 
....................       if(input(PIN_B6)==FALSE)                              //SI NO HAY NADA EN EL SENSOR 2, SE PROCEDE A EJECUTAR LAS SIG. INSTRUCCIONES. 
057E:  BSF    F93.6
0580:  BTFSC  F81.6
0582:  BRA    0666
....................       { 
....................          if((input(PIN_B0) || input(PIN_B1) || input(PIN_B2) || input(PIN_B3))==FALSE) //SI NO HAY CAMBIO DE NIVEL, SE CUMPLE LA CONDICIÓN. 
0584:  BSF    F93.0
0586:  BTFSC  F81.0
0588:  BRA    05A0
058A:  BSF    F93.1
058C:  BTFSC  F81.1
058E:  BRA    05A0
0590:  BSF    F93.2
0592:  BTFSC  F81.2
0594:  BRA    05A0
0596:  BSF    F93.3
0598:  BTFSC  F81.3
059A:  BRA    05A0
059C:  MOVLW  00
059E:  BRA    05A2
05A0:  MOVLW  01
05A2:  XORLW  00
05A4:  BNZ   0664
....................          { 
....................             while((input(PIN_B6) || input(PIN_B0) || input(PIN_B1) || input(PIN_B2) || input(PIN_B3))==FALSE) //SI NO HAY CAMBIOS DE NIVEL... 
05A6:  BSF    F93.6
05A8:  BTFSC  F81.6
05AA:  BRA    05C8
05AC:  BSF    F93.0
05AE:  BTFSC  F81.0
05B0:  BRA    05C8
05B2:  BSF    F93.1
05B4:  BTFSC  F81.1
05B6:  BRA    05C8
05B8:  BSF    F93.2
05BA:  BTFSC  F81.2
05BC:  BRA    05C8
05BE:  BSF    F93.3
05C0:  BTFSC  F81.3
05C2:  BRA    05C8
05C4:  MOVLW  00
05C6:  BRA    05CA
05C8:  MOVLW  01
05CA:  XORLW  00
05CC:  BNZ   0618
....................             { 
....................                                                             //... O SE ENCIENDE EL SENSOR DEL NIVEL 2, BUCLE, HASTA QUE SENSOR DE NIVEL 2 SE ACTIVE. 
....................                output_high(PIN_D0);                         //MIENTRAS NO EXISTA CAMBIO DE NIVEL, SE EMPIEZA A LLENAR EL RECIPIENTE 
05CE:  BCF    F95.0
05D0:  BSF    F8C.0
....................                output_low(PIN_D1);                          //RECORDAR QUE C7=LLENADO; AQUI SE ENCIENDE EL MOTOR DE LLENADO 
05D2:  BCF    F95.1
05D4:  BCF    F8C.1
....................                                                             //RECORDAR QUE C6=VACIADO; AQUI SE APAGA EL MOTOR DE VACIADO. 
....................  
....................                if(input(PIN_B4)==TRUE) 
05D6:  BSF    F93.4
05D8:  BTFSS  F81.4
05DA:  BRA    05E2
....................                { 
....................                   output_high(PIN_D5); 
05DC:  BCF    F95.5
05DE:  BSF    F8C.5
....................                } 
05E0:  BRA    05E6
....................                else 
....................                { 
....................                   output_low(PIN_D5); 
05E2:  BCF    F95.5
05E4:  BCF    F8C.5
....................                } 
....................     
....................                if(input(PIN_B5)==TRUE) 
05E6:  BSF    F93.5
05E8:  BTFSS  F81.5
05EA:  BRA    05F2
....................                { 
....................                   output_high(PIN_D4); 
05EC:  BCF    F95.4
05EE:  BSF    F8C.4
....................                } 
05F0:  BRA    05F6
....................                else 
....................                { 
....................                   output_low(PIN_D4); 
05F2:  BCF    F95.4
05F4:  BCF    F8C.4
....................                } 
....................                 
....................                if(input(PIN_B6)==TRUE) 
05F6:  BSF    F93.6
05F8:  BTFSS  F81.6
05FA:  BRA    0602
....................                { 
....................                   output_high(PIN_D3); 
05FC:  BCF    F95.3
05FE:  BSF    F8C.3
....................                } 
0600:  BRA    0606
....................                else 
....................                { 
....................                   output_low(PIN_D3); 
0602:  BCF    F95.3
0604:  BCF    F8C.3
....................                } 
....................     
....................                if(input(PIN_B7)==TRUE) 
0606:  BSF    F93.7
0608:  BTFSS  F81.7
060A:  BRA    0612
....................                { 
....................                   output_high(PIN_D2); 
060C:  BCF    F95.2
060E:  BSF    F8C.2
....................                } 
0610:  BRA    0616
....................                else 
....................                { 
....................                   output_low(PIN_D2); 
0612:  BCF    F95.2
0614:  BCF    F8C.2
....................                } 
0616:  BRA    05A6
....................  
....................             } 
....................              
....................             if(input(PIN_B4)==TRUE) 
0618:  BSF    F93.4
061A:  BTFSS  F81.4
061C:  BRA    0624
....................             { 
....................                output_high(PIN_D5); 
061E:  BCF    F95.5
0620:  BSF    F8C.5
....................             } 
0622:  BRA    0628
....................             else 
....................             { 
....................                output_low(PIN_D5); 
0624:  BCF    F95.5
0626:  BCF    F8C.5
....................             } 
....................  
....................             if(input(PIN_B5)==TRUE) 
0628:  BSF    F93.5
062A:  BTFSS  F81.5
062C:  BRA    0634
....................             { 
....................                output_high(PIN_D4); 
062E:  BCF    F95.4
0630:  BSF    F8C.4
....................             } 
0632:  BRA    0638
....................             else 
....................             { 
....................                output_low(PIN_D4); 
0634:  BCF    F95.4
0636:  BCF    F8C.4
....................             } 
....................              
....................             if(input(PIN_B6)==TRUE) 
0638:  BSF    F93.6
063A:  BTFSS  F81.6
063C:  BRA    0644
....................             { 
....................                output_high(PIN_D3); 
063E:  BCF    F95.3
0640:  BSF    F8C.3
....................             } 
0642:  BRA    0648
....................             else 
....................             { 
....................                output_low(PIN_D3); 
0644:  BCF    F95.3
0646:  BCF    F8C.3
....................             } 
....................  
....................             if(input(PIN_B7)==TRUE) 
0648:  BSF    F93.7
064A:  BTFSS  F81.7
064C:  BRA    0654
....................             { 
....................                output_high(PIN_D2); 
064E:  BCF    F95.2
0650:  BSF    F8C.2
....................             } 
0652:  BRA    0658
....................             else 
....................             { 
....................                output_low(PIN_D2); 
0654:  BCF    F95.2
0656:  BCF    F8C.2
....................             } 
....................              
....................             output_low(PIN_D0);                             //SE SALIÓ DEL BUCLE ANTERIOR, ENTONCES SE PROCEDE A, APAGAR LOS MOTORES 
0658:  BCF    F95.0
065A:  BCF    F8C.0
....................             output_low(PIN_D1);                             //Y SE REGRESA AL NIVEL 1. CON ESTO SE VUELVEN A PEDIR LOS DATOS DE NIVEL. 
065C:  BCF    F95.1
065E:  BCF    F8C.1
....................             goto nivel1; 
0660:  BRA    0072
....................              
....................          } 
0662:  BRA    0666
....................          else 
....................          { 
....................             goto nivel1; 
0664:  BRA    0072
....................          } 
....................       } 
....................        
....................    if(input(PIN_B7)==TRUE)            //SI HAY AGUA EN LOS NIVELES 3 Y 4, LA CONDICIÓN SE CUMPLE, SINO SE VA AL ELSE. 
0666:  BSF    F93.7
0668:  BTFSS  F81.7
066A:  BRA    0730
....................    { 
....................       while((input(PIN_B6) || input(PIN_B7))==TRUE)  //SI HAY AGUA EN LOS NIVELES 3, 4 Y 5, SE CUMPLE LA... 
066C:  BSF    F93.6
066E:  BTFSC  F81.6
0670:  BRA    067C
0672:  BSF    F93.7
0674:  BTFSC  F81.7
0676:  BRA    067C
0678:  MOVLW  00
067A:  BRA    067E
067C:  MOVLW  01
067E:  SUBLW  01
0680:  BNZ   06F0
....................       {                                                                                //... CONDICIÓN Y SE PROCEDE A VACIAR EL TANQUE. 
....................          output_low(PIN_D0);                             //RECORDAR QUE C7=LLENADO; AQUI SE APAGA EL MOTOR DE LLENADO 
0682:  BCF    F95.0
0684:  BCF    F8C.0
....................          output_high(PIN_D1);                            //RECORDAR QUE C6=VACIADO; AQUI SE ENCIENDE EL MOTOR DE VACIADO. 
0686:  BCF    F95.1
0688:  BSF    F8C.1
....................  
....................          if((input(PIN_B0) || input(PIN_B1) || input(PIN_B2) || input(PIN_B3))==TRUE)  //SI SE SOLICITA CAMBIO DE NIVEL, SE CUMPLE LA CONDICIÓN 
068A:  BSF    F93.0
068C:  BTFSC  F81.0
068E:  BRA    06A6
0690:  BSF    F93.1
0692:  BTFSC  F81.1
0694:  BRA    06A6
0696:  BSF    F93.2
0698:  BTFSC  F81.2
069A:  BRA    06A6
069C:  BSF    F93.3
069E:  BTFSC  F81.3
06A0:  BRA    06A6
06A2:  MOVLW  00
06A4:  BRA    06A8
06A6:  MOVLW  01
06A8:  SUBLW  01
06AA:  BNZ   06AE
....................          { 
....................                                                                  //PARA LA CUAL SE EJECUTA goto nivel1, Y SE VUELVE A EVALUAR LOS NIVELES. 
....................             goto nivel1;                                                               //REGRESA A LA ETIQUETA DE nivel1, (SE SOBREENTIENDE). 
06AC:  BRA    0072
....................          } 
....................  
....................          if(input(PIN_B4)==TRUE) 
06AE:  BSF    F93.4
06B0:  BTFSS  F81.4
06B2:  BRA    06BA
....................          { 
....................             output_high(PIN_D5); 
06B4:  BCF    F95.5
06B6:  BSF    F8C.5
....................          } 
06B8:  BRA    06BE
....................          else 
....................          { 
....................             output_low(PIN_D5); 
06BA:  BCF    F95.5
06BC:  BCF    F8C.5
....................          } 
....................     
....................          if(input(PIN_B5)==TRUE) 
06BE:  BSF    F93.5
06C0:  BTFSS  F81.5
06C2:  BRA    06CA
....................          { 
....................             output_high(PIN_D4); 
06C4:  BCF    F95.4
06C6:  BSF    F8C.4
....................          } 
06C8:  BRA    06CE
....................          else 
....................          { 
....................             output_low(PIN_D4); 
06CA:  BCF    F95.4
06CC:  BCF    F8C.4
....................          } 
....................                 
....................          if(input(PIN_B6)==TRUE) 
06CE:  BSF    F93.6
06D0:  BTFSS  F81.6
06D2:  BRA    06DA
....................          { 
....................             output_high(PIN_D3); 
06D4:  BCF    F95.3
06D6:  BSF    F8C.3
....................          } 
06D8:  BRA    06DE
....................          else 
....................          { 
....................             output_low(PIN_D3); 
06DA:  BCF    F95.3
06DC:  BCF    F8C.3
....................          } 
....................  
....................          if(input(PIN_B7)==TRUE) 
06DE:  BSF    F93.7
06E0:  BTFSS  F81.7
06E2:  BRA    06EA
....................          { 
....................             output_high(PIN_D2); 
06E4:  BCF    F95.2
06E6:  BSF    F8C.2
....................          } 
06E8:  BRA    06EE
....................          else 
....................          { 
....................             output_low(PIN_D2); 
06EA:  BCF    F95.2
06EC:  BCF    F8C.2
....................          } 
06EE:  BRA    066C
....................  
....................       } 
....................  
....................       if(input(PIN_B4)==TRUE) 
06F0:  BSF    F93.4
06F2:  BTFSS  F81.4
06F4:  BRA    06FC
....................       { 
....................          output_high(PIN_D5); 
06F6:  BCF    F95.5
06F8:  BSF    F8C.5
....................       } 
06FA:  BRA    0700
....................       else 
....................       { 
....................          output_low(PIN_D5); 
06FC:  BCF    F95.5
06FE:  BCF    F8C.5
....................       } 
....................  
....................       if(input(PIN_B5)==TRUE) 
0700:  BSF    F93.5
0702:  BTFSS  F81.5
0704:  BRA    070C
....................       { 
....................          output_high(PIN_D4); 
0706:  BCF    F95.4
0708:  BSF    F8C.4
....................       } 
070A:  BRA    0710
....................       else 
....................       { 
....................          output_low(PIN_D4); 
070C:  BCF    F95.4
070E:  BCF    F8C.4
....................       } 
....................  
....................       if(input(PIN_B6)==TRUE) 
0710:  BSF    F93.6
0712:  BTFSS  F81.6
0714:  BRA    071C
....................       { 
....................          output_high(PIN_D3); 
0716:  BCF    F95.3
0718:  BSF    F8C.3
....................       } 
071A:  BRA    0720
....................       else 
....................       { 
....................          output_low(PIN_D3); 
071C:  BCF    F95.3
071E:  BCF    F8C.3
....................       } 
....................  
....................       if(input(PIN_B7)==TRUE) 
0720:  BSF    F93.7
0722:  BTFSS  F81.7
0724:  BRA    072C
....................       { 
....................          output_high(PIN_D2); 
0726:  BCF    F95.2
0728:  BSF    F8C.2
....................       } 
072A:  BRA    0730
....................       else 
....................       { 
....................          output_low(PIN_D2); 
072C:  BCF    F95.2
072E:  BCF    F8C.2
....................       } 
....................    } 
....................  
....................       if(input(PIN_B6)==FALSE)                                                       //SI SE CUMPLE LA CONDICIÓN DE QUE EL NIVEL 2 (EL SENSOR DEL NIVEL 2) SEA FALSO, SE 
0730:  BSF    F93.6
0732:  BTFSC  F81.6
0734:  BRA    0766
....................       {                                                                 //EJECUTA LAS SIGUIENTES INSTRUCCIONES CON EVALUACIONES: 
....................       output_low(PIN_D0); 
0736:  BCF    F95.0
0738:  BCF    F8C.0
....................       output_low(PIN_D1); 
073A:  BCF    F95.1
073C:  BCF    F8C.1
....................        
....................          if((input(PIN_B0) || input(PIN_B1) || input(PIN_B2) || input(PIN_B3))==TRUE)  //SI HAY CAMBIO DE NIVELES, SE CUMPLE LA CONDICIÓN 
073E:  BSF    F93.0
0740:  BTFSC  F81.0
0742:  BRA    075A
0744:  BSF    F93.1
0746:  BTFSC  F81.1
0748:  BRA    075A
074A:  BSF    F93.2
074C:  BTFSC  F81.2
074E:  BRA    075A
0750:  BSF    F93.3
0752:  BTFSC  F81.3
0754:  BRA    075A
0756:  MOVLW  00
0758:  BRA    075C
075A:  MOVLW  01
075C:  SUBLW  01
075E:  BNZ   0764
....................          {                                                                           //Y SE PROCEDE A EJECUTAR LA SIGUIENTE INSTRUCCIÓN 
....................             goto nivel1;                                 //IR AL nivel1 CON LA INSTRUCCIÓN goto nivel1. 
0760:  BRA    0072
....................          } 
0762:  BRA    0766
....................          else                                            //SI NO SE CUMPLIÓ, SE PROCEDE A REALIZAR LO QUE DICE EL else 
....................          { 
....................             goto subnivel3;                              //IR AL subnivel2, CON EL FIN DE EVALUAR NUEVAMENTE EL SENSOR DOS 
0764:  BRA    057E
....................          }                                               //DEBIDO A QUE EL SE REQUIERE LLEGAR AL NIVEL 2 (SENSOR DEL NIVEL 2 [PIN_B5]). 
....................       } 
....................    } 
....................  
....................    //FIN DEL NIVEL 3 
....................  
....................  
....................    //INICIO DEL NIVEL 4 
....................    nivel4:   
....................    if(input(PIN_B3)==TRUE)       //SI SE ACTIVA EL BOTON DEL NIVEL 2, SE EJECUTAN LAS DEMÁS SENTENCIAS: 
0766:  BSF    F93.3
0768:  BTFSS  F81.3
076A:  BRA    0924
....................    { 
....................       output_high(PIN_D2);                                    //SE ACTIVA LA LUZ DEL NIVEL 2 
076C:  BCF    F95.2
076E:  BSF    F8C.2
....................       output_low(PIN_D3);                                   //SE DESACTIVAN LAS DEMÁS LUCES. 
0770:  BCF    F95.3
0772:  BCF    F8C.3
....................       output_low(PIN_D4); 
0774:  BCF    F95.4
0776:  BCF    F8C.4
....................       output_low(PIN_D5); 
0778:  BCF    F95.5
077A:  BCF    F8C.5
....................       delay_ms(700);                                        //SE RETRASA 700ms Y SE PROCEDE A, APAGAR LA LUZ DEL NIVEL 2 
077C:  MOVLW  04
077E:  MOVWF  05
0780:  MOVLW  AF
0782:  MOVWF  06
0784:  RCALL  0004
0786:  DECFSZ 05,F
0788:  BRA    0780
....................       output_low(PIN_D2);                                   //SE RETRASA 1s MÁS ANTES DE EVALUAR LOS SENSORES. 
078A:  BCF    F95.2
078C:  BCF    F8C.2
....................       delay_ms(500); 
078E:  MOVLW  02
0790:  MOVWF  05
0792:  MOVLW  FA
0794:  MOVWF  06
0796:  RCALL  0004
0798:  DECFSZ 05,F
079A:  BRA    0792
....................        
....................       if((input(PIN_B0) || input(PIN_B1) || input(PIN_B2) || input(PIN_B3))==TRUE)     //SI NO HAY INSTRUCCIONES DE CAMBIO DE NIVEL SE CONTINUA, 
079C:  BSF    F93.0
079E:  BTFSC  F81.0
07A0:  BRA    07B8
07A2:  BSF    F93.1
07A4:  BTFSC  F81.1
07A6:  BRA    07B8
07A8:  BSF    F93.2
07AA:  BTFSC  F81.2
07AC:  BRA    07B8
07AE:  BSF    F93.3
07B0:  BTFSC  F81.3
07B2:  BRA    07B8
07B4:  MOVLW  00
07B6:  BRA    07BA
07B8:  MOVLW  01
07BA:  SUBLW  01
07BC:  BNZ   07C0
....................       {                                                                                //DE LO CONTRARIO, SE PROCEDE A REINICIAR CON EL NIVEL 
....................          goto nivel1;                                                                  //ESPECIFICADO CON EL BOTON CORRESPONDIENTE. 
07BE:  BRA    0072
....................       } 
....................        
....................       subnivel4:                                            //ETIQUETA PARA ACCEDER CUANDO SE LE NECESITE APARTIR DE ESTA LINEA. 
....................       if(input(PIN_B7)==FALSE)                              //SI NO HAY NADA EN EL SENSOR 2, SE PROCEDE A EJECUTAR LAS SIG. INSTRUCCIONES. 
07C0:  BSF    F93.7
07C2:  BTFSC  F81.7
07C4:  BRA    08AC
....................       { 
....................          if((input(PIN_B0) || input(PIN_B1) || input(PIN_B2) || input(PIN_B3))==FALSE) //SI NO HAY CAMBIO DE NIVEL, SE CUMPLE LA CONDICIÓN. 
07C6:  BSF    F93.0
07C8:  BTFSC  F81.0
07CA:  BRA    07E2
07CC:  BSF    F93.1
07CE:  BTFSC  F81.1
07D0:  BRA    07E2
07D2:  BSF    F93.2
07D4:  BTFSC  F81.2
07D6:  BRA    07E2
07D8:  BSF    F93.3
07DA:  BTFSC  F81.3
07DC:  BRA    07E2
07DE:  MOVLW  00
07E0:  BRA    07E4
07E2:  MOVLW  01
07E4:  XORLW  00
07E6:  BNZ   08A8
....................          { 
....................             while((input(PIN_B7) || input(PIN_B0) || input(PIN_B1) || input(PIN_B2) || input(PIN_B3))==FALSE) //SI NO HAY CAMBIOS DE NIVEL... 
07E8:  BSF    F93.7
07EA:  BTFSC  F81.7
07EC:  BRA    080A
07EE:  BSF    F93.0
07F0:  BTFSC  F81.0
07F2:  BRA    080A
07F4:  BSF    F93.1
07F6:  BTFSC  F81.1
07F8:  BRA    080A
07FA:  BSF    F93.2
07FC:  BTFSC  F81.2
07FE:  BRA    080A
0800:  BSF    F93.3
0802:  BTFSC  F81.3
0804:  BRA    080A
0806:  MOVLW  00
0808:  BRA    080C
080A:  MOVLW  01
080C:  XORLW  00
080E:  BNZ   085A
....................             {                                        //... O SE ENCIENDE EL SENSOR DEL NIVEL 2, BUCLE, HASTA QUE SENSOR DE NIVEL 2 SE ACTIVE. 
....................                output_high(PIN_D0);                         //MIENTRAS NO EXISTA CAMBIO DE NIVEL, SE EMPIEZA A LLENAR EL RECIPIENTE 
0810:  BCF    F95.0
0812:  BSF    F8C.0
....................                output_low(PIN_D1);                          //RECORDAR QUE C7=LLENADO; AQUI SE ENCIENDE EL MOTOR DE LLENADO 
0814:  BCF    F95.1
0816:  BCF    F8C.1
....................                                                            //RECORDAR QUE C6=VACIADO; AQUI SE APAGA EL MOTOR DE VACIADO. 
....................                if(input(PIN_B4)==TRUE) 
0818:  BSF    F93.4
081A:  BTFSS  F81.4
081C:  BRA    0824
....................                { 
....................                   output_high(PIN_D5); 
081E:  BCF    F95.5
0820:  BSF    F8C.5
....................                } 
0822:  BRA    0828
....................                else 
....................                { 
....................                   output_low(PIN_D5); 
0824:  BCF    F95.5
0826:  BCF    F8C.5
....................                } 
....................     
....................                if(input(PIN_B5)==TRUE) 
0828:  BSF    F93.5
082A:  BTFSS  F81.5
082C:  BRA    0834
....................                { 
....................                   output_high(PIN_D4); 
082E:  BCF    F95.4
0830:  BSF    F8C.4
....................                } 
0832:  BRA    0838
....................                else 
....................                { 
....................                   output_low(PIN_D4); 
0834:  BCF    F95.4
0836:  BCF    F8C.4
....................                } 
....................                 
....................                if(input(PIN_B6)==TRUE) 
0838:  BSF    F93.6
083A:  BTFSS  F81.6
083C:  BRA    0844
....................                { 
....................                   output_high(PIN_D3); 
083E:  BCF    F95.3
0840:  BSF    F8C.3
....................                } 
0842:  BRA    0848
....................                else 
....................                { 
....................                   output_low(PIN_D3); 
0844:  BCF    F95.3
0846:  BCF    F8C.3
....................                } 
....................     
....................                if(input(PIN_B7)==TRUE) 
0848:  BSF    F93.7
084A:  BTFSS  F81.7
084C:  BRA    0854
....................                { 
....................                   output_high(PIN_D2); 
084E:  BCF    F95.2
0850:  BSF    F8C.2
....................                } 
0852:  BRA    0858
....................                else 
....................                { 
....................                   output_low(PIN_D2); 
0854:  BCF    F95.2
0856:  BCF    F8C.2
....................                } 
0858:  BRA    07E8
....................             } 
....................              
....................             if(input(PIN_B4)==TRUE) 
085A:  BSF    F93.4
085C:  BTFSS  F81.4
085E:  BRA    0866
....................             { 
....................                output_high(PIN_D5); 
0860:  BCF    F95.5
0862:  BSF    F8C.5
....................             } 
0864:  BRA    086A
....................             else 
....................             { 
....................                output_low(PIN_D5); 
0866:  BCF    F95.5
0868:  BCF    F8C.5
....................             } 
....................     
....................             if(input(PIN_B5)==TRUE) 
086A:  BSF    F93.5
086C:  BTFSS  F81.5
086E:  BRA    0876
....................             { 
....................                output_high(PIN_D4); 
0870:  BCF    F95.4
0872:  BSF    F8C.4
....................             } 
0874:  BRA    087A
....................             else 
....................             { 
....................                output_low(PIN_D4); 
0876:  BCF    F95.4
0878:  BCF    F8C.4
....................             } 
....................                 
....................             if(input(PIN_B6)==TRUE) 
087A:  BSF    F93.6
087C:  BTFSS  F81.6
087E:  BRA    0886
....................             { 
....................                output_high(PIN_D3); 
0880:  BCF    F95.3
0882:  BSF    F8C.3
....................             } 
0884:  BRA    088A
....................             else 
....................             { 
....................                output_low(PIN_D3); 
0886:  BCF    F95.3
0888:  BCF    F8C.3
....................             } 
....................     
....................             if(input(PIN_B7)==TRUE) 
088A:  BSF    F93.7
088C:  BTFSS  F81.7
088E:  BRA    0896
....................             { 
....................                output_high(PIN_D2); 
0890:  BCF    F95.2
0892:  BSF    F8C.2
....................             } 
0894:  BRA    089A
....................             else 
....................             { 
....................                output_low(PIN_D2); 
0896:  BCF    F95.2
0898:  BCF    F8C.2
....................             } 
....................           
....................              
....................             output_low(PIN_D0);                             //SE SALIÓ DEL BUCLE ANTERIOR, ENTONCES SE PROCEDE A, APAGAR LOS MOTORES 
089A:  BCF    F95.0
089C:  BCF    F8C.0
....................             output_low(PIN_D1);                             //Y SE REGRESA AL NIVEL 1. CON ESTO SE VUELVEN A PEDIR LOS DATOS DE NIVEL. 
089E:  BCF    F95.1
08A0:  BCF    F8C.1
....................             goto nivel1; 
08A2:  GOTO   0072
....................              
....................          } 
08A6:  BRA    08AC
....................          else 
....................          { 
....................             goto nivel1; 
08A8:  GOTO   0072
....................          } 
....................       } 
....................        
....................       while(input(PIN_B7)==TRUE)                                    //SI HAY AGUA EN EL NIVEL 4, LA CONDICIÓN SE CUMPLE, SINO SE VA AL ELSE. 
08AC:  BSF    F93.7
08AE:  BTFSS  F81.7
08B0:  BRA    0922
....................       { 
....................                                                                                          //... CONDICIÓN Y SE PROCEDE A VACIAR EL TANQUE. 
....................             output_low(PIN_D0);                             //RECORDAR QUE C7=LLENADO; AQUI SE APAGA EL MOTOR DE LLENADO 
08B2:  BCF    F95.0
08B4:  BCF    F8C.0
....................             output_low(PIN_D1);                            //RECORDAR QUE C6=VACIADO; AQUI SE ENCIENDE EL MOTOR DE VACIADO. 
08B6:  BCF    F95.1
08B8:  BCF    F8C.1
....................              
....................             if((input(PIN_B0) || input(PIN_B1) || input(PIN_B2) || input(PIN_B3))==TRUE)  //SI SE SOLICITA CAMBIO DE NIVEL, SE CUMPLE LA CONDICIÓN 
08BA:  BSF    F93.0
08BC:  BTFSC  F81.0
08BE:  BRA    08D6
08C0:  BSF    F93.1
08C2:  BTFSC  F81.1
08C4:  BRA    08D6
08C6:  BSF    F93.2
08C8:  BTFSC  F81.2
08CA:  BRA    08D6
08CC:  BSF    F93.3
08CE:  BTFSC  F81.3
08D0:  BRA    08D6
08D2:  MOVLW  00
08D4:  BRA    08D8
08D6:  MOVLW  01
08D8:  SUBLW  01
08DA:  BNZ   08E0
....................             {                                                                             //PARA LA CUAL SE EJECUTA goto nivel1, Y SE VUELVE A EVALUAR LOS NIVELES. 
....................                goto nivel1;                                                               //REGRESA A LA ETIQUETA DE nivel1, (SE SOBREENTIENDE). 
08DC:  GOTO   0072
....................             } 
....................           
....................  
....................                if(input(PIN_B4)==TRUE) 
08E0:  BSF    F93.4
08E2:  BTFSS  F81.4
08E4:  BRA    08EC
....................                { 
....................                   output_high(PIN_D5); 
08E6:  BCF    F95.5
08E8:  BSF    F8C.5
....................                } 
08EA:  BRA    08F0
....................                else 
....................                { 
....................                   output_low(PIN_D5); 
08EC:  BCF    F95.5
08EE:  BCF    F8C.5
....................                } 
....................     
....................                if(input(PIN_B5)==TRUE) 
08F0:  BSF    F93.5
08F2:  BTFSS  F81.5
08F4:  BRA    08FC
....................                { 
....................                   output_high(PIN_D4); 
08F6:  BCF    F95.4
08F8:  BSF    F8C.4
....................                } 
08FA:  BRA    0900
....................                else 
....................                { 
....................                   output_low(PIN_D4); 
08FC:  BCF    F95.4
08FE:  BCF    F8C.4
....................                } 
....................                 
....................                if(input(PIN_B6)==TRUE) 
0900:  BSF    F93.6
0902:  BTFSS  F81.6
0904:  BRA    090C
....................                { 
....................                   output_high(PIN_D3); 
0906:  BCF    F95.3
0908:  BSF    F8C.3
....................                } 
090A:  BRA    0910
....................                else 
....................                { 
....................                   output_low(PIN_D3); 
090C:  BCF    F95.3
090E:  BCF    F8C.3
....................                } 
....................     
....................                if(input(PIN_B7)==TRUE) 
0910:  BSF    F93.7
0912:  BTFSS  F81.7
0914:  BRA    091C
....................                { 
....................                   output_high(PIN_D2); 
0916:  BCF    F95.2
0918:  BSF    F8C.2
....................                } 
091A:  BRA    0920
....................                else 
....................                { 
....................                   output_low(PIN_D2); 
091C:  BCF    F95.2
091E:  BCF    F8C.2
....................                } 
0920:  BRA    08AC
....................           
....................       } 
....................       goto subnivel4; 
0922:  BRA    07C0
....................    } 
....................    //FIN DEL NIVEL 4 
....................     
....................    //RA7=lvl_1 
....................    //RA6=lvl_2 
....................    //RA3=lvl_3 
....................    //RA2=lvl_4 
....................  
....................             if(input(PIN_B4)==TRUE) 
0924:  BSF    F93.4
0926:  BTFSS  F81.4
0928:  BRA    0930
....................             { 
....................                output_high(PIN_D5); 
092A:  BCF    F95.5
092C:  BSF    F8C.5
....................             } 
092E:  BRA    0934
....................             else 
....................             { 
....................                output_low(PIN_D5); 
0930:  BCF    F95.5
0932:  BCF    F8C.5
....................             } 
....................     
....................             if(input(PIN_B5)==TRUE) 
0934:  BSF    F93.5
0936:  BTFSS  F81.5
0938:  BRA    0940
....................             { 
....................                output_high(PIN_D4); 
093A:  BCF    F95.4
093C:  BSF    F8C.4
....................             } 
093E:  BRA    0944
....................             else 
....................             { 
....................                output_low(PIN_D4); 
0940:  BCF    F95.4
0942:  BCF    F8C.4
....................             } 
....................     
....................             if(input(PIN_B6)==TRUE) 
0944:  BSF    F93.6
0946:  BTFSS  F81.6
0948:  BRA    0950
....................             { 
....................             output_high(PIN_D3); 
094A:  BCF    F95.3
094C:  BSF    F8C.3
....................             } 
094E:  BRA    0954
....................             else 
....................             { 
....................                output_low(PIN_D3); 
0950:  BCF    F95.3
0952:  BCF    F8C.3
....................             } 
....................     
....................             if(input(PIN_B7)==TRUE) 
0954:  BSF    F93.7
0956:  BTFSS  F81.7
0958:  BRA    0960
....................             { 
....................                output_high(PIN_D2); 
095A:  BCF    F95.2
095C:  BSF    F8C.2
....................             } 
095E:  BRA    0964
....................             else 
....................             { 
....................                output_low(PIN_D2); 
0960:  BCF    F95.2
0962:  BCF    F8C.2
....................             } 
0964:  GOTO   006A
....................  
....................    } 
....................  
....................       }//FIN DEL WHILE(TRUE), EL CUAL SE REPITE INFINITAMENTE. 
....................     
0968:  SLEEP 

Configuration Fuses:
   Word  1: C03F   PLL12 CPUDIV4 USBDIV XT FCMEN IESO
   Word  2: 1E3E   PUT BROWNOUT BORV21 VREGEN NOWDT WDT32768
   Word  3: 8700   CCP2C1 PBADEN LPT1OSC MCLR
   Word  4: 00A1   STVREN NOLVP ICSP2 NOXINST NODEBUG
   Word  5: C00F   NOPROTECT NOCPB NOCPD
   Word  6: E00F   NOWRT NOWRTC NOWRTB NOWRTD
   Word  7: 400F   NOEBTR NOEBTRB
